target datalayout = "e-m:e-p270:32:32-p271:32:32-p272:64:64-i64:64-i128:128-f80:128-n8:16:32:64-S128"
target triple = "x86_64-pc-linux-gnu"

%"struct.ozz::animation::SamplingJob" = type { float, ptr, ptr, %"struct.ozz::span" }
%"struct.ozz::span" = type { ptr, i64 }
%"class.ozz::animation::Animation" = type { float, i32, ptr, ptr, %"struct.ozz::span.0", %"struct.ozz::animation::Animation::TKeyframesCtrl", %"struct.ozz::animation::Animation::TKeyframesCtrl", %"struct.ozz::animation::Animation::TKeyframesCtrl", %"struct.ozz::span.4", %"struct.ozz::span.5", %"struct.ozz::span.4" }
%"struct.ozz::span.0" = type { ptr, i64 }
%"struct.ozz::animation::Animation::TKeyframesCtrl" = type <{ %"struct.ozz::span.1", %"struct.ozz::span.2", %"struct.ozz::span.1", %"struct.ozz::span.3", float, [4 x i8] }>
%"struct.ozz::span.2" = type { ptr, i64 }
%"struct.ozz::span.1" = type { ptr, i64 }
%"struct.ozz::span.3" = type { ptr, i64 }
%"struct.ozz::span.5" = type { ptr, i64 }
%"struct.ozz::span.4" = type { ptr, i64 }
%"class.ozz::animation::SamplingJob::Context" = type { ptr, float, i32, ptr, %"struct.ozz::animation::SamplingJob::Context::Cache", %"struct.ozz::animation::SamplingJob::Context::Cache", %"struct.ozz::animation::SamplingJob::Context::Cache", %"struct.ozz::span.6", %"struct.ozz::span.7", %"struct.ozz::span.6" }
%"struct.ozz::animation::SamplingJob::Context::Cache" = type <{ %"struct.ozz::span.3", %"struct.ozz::span.1", i32, [4 x i8] }>
%"struct.ozz::span.7" = type { ptr, i64 }
%"struct.ozz::span.6" = type { ptr, i64 }

; Function Attrs: mustprogress nounwind uwtable
define linkonce_odr dso_local noundef i32 @_ZNK3ozz9animation11SamplingJob7Context14max_soa_tracksEv(ptr noundef nonnull align 8 dereferenceable(192) %0) #2 comdat align 2 {
  %2 = alloca ptr, align 8
  store ptr %0, ptr %2, align 8, !tbaa !43
  %3 = load ptr, ptr %2, align 8
  %4 = getelementptr inbounds nuw %"class.ozz::animation::SamplingJob::Context", ptr %3, i32 0, i32 2
  %5 = load i32, ptr %4, align 4, !tbaa !44
  ret i32 %5
}

; Function Attrs: mustprogress nounwind uwtable
define linkonce_odr dso_local noundef i32 @_ZNK3ozz9animation9Animation14num_soa_tracksEv(ptr noundef nonnull align 8 dereferenceable(304) %0) #2 comdat align 2 {
  %2 = alloca ptr, align 8
  store ptr %0, ptr %2, align 8, !tbaa !27
  %3 = load ptr, ptr %2, align 8
  %4 = getelementptr inbounds nuw %"class.ozz::animation::Animation", ptr %3, i32 0, i32 1
  %5 = load i32, ptr %4, align 4, !tbaa !28
  %6 = add nsw i32 %5, 3
  %7 = sdiv i32 %6, 4
  ret i32 %7
}

; Function Attrs: mustprogress nounwind uwtable
define linkonce_odr dso_local noundef zeroext i1 @_ZNK3ozz4spanINS_4math12SoaTransformEE5emptyEv(ptr noundef nonnull align 8 dereferenceable(16) %0) #2 comdat align 2 {
  %2 = alloca ptr, align 8
  store ptr %0, ptr %2, align 8, !tbaa !24
  %3 = load ptr, ptr %2, align 8
  %4 = getelementptr inbounds nuw %"struct.ozz::span", ptr %3, i32 0, i32 1
  %5 = load i64, ptr %4, align 8, !tbaa !26
  %6 = icmp eq i64 %5, 0
  ret i1 %6
}

; Function Attrs: mustprogress uwtable
define dso_local noundef zeroext i1 @_ZNK3ozz9animation11SamplingJob8ValidateEv(ptr noundef nonnull align 8 dereferenceable(40) %0) #0 align 2 {
  %2 = alloca i1, align 1
  %3 = alloca ptr, align 8
  %4 = alloca i8, align 1
  %5 = alloca i32, align 4
  %6 = alloca i32, align 4
  store ptr %0, ptr %3, align 8, !tbaa !4
  %7 = load ptr, ptr %3, align 8
  call void @llvm.lifetime.start.p0(i64 1, ptr %4) #15
  store i8 1, ptr %4, align 1, !tbaa !9
  %8 = getelementptr inbounds nuw %"struct.ozz::animation::SamplingJob", ptr %7, i32 0, i32 1
  %9 = load ptr, ptr %8, align 8, !tbaa !11
  %10 = icmp ne ptr %9, null
  br i1 %10, label %11, label %15

11:                                               ; preds = %1
  %12 = getelementptr inbounds nuw %"struct.ozz::animation::SamplingJob", ptr %7, i32 0, i32 2
  %13 = load ptr, ptr %12, align 8, !tbaa !19
  %14 = icmp ne ptr %13, null
  br i1 %14, label %16, label %15

15:                                               ; preds = %11, %1
  store i1 false, ptr %2, align 1
  store i32 1, ptr %5, align 4
  br label %44

16:                                               ; preds = %11
  %17 = getelementptr inbounds nuw %"struct.ozz::animation::SamplingJob", ptr %7, i32 0, i32 3
  %18 = call noundef zeroext i1 @_ZNK3ozz4spanINS_4math12SoaTransformEE5emptyEv(ptr noundef nonnull align 8 dereferenceable(16) %17)
  %19 = xor i1 %18, true
  %20 = zext i1 %19 to i32
  %21 = load i8, ptr %4, align 1, !tbaa !9, !range !20, !noundef !21
  %22 = trunc i8 %21 to i1
  %23 = zext i1 %22 to i32
  %24 = and i32 %23, %20
  %25 = icmp ne i32 %24, 0
  %26 = zext i1 %25 to i8
  store i8 %26, ptr %4, align 1, !tbaa !9
  call void @llvm.lifetime.start.p0(i64 4, ptr %6) #15
  %27 = getelementptr inbounds nuw %"struct.ozz::animation::SamplingJob", ptr %7, i32 0, i32 1
  %28 = load ptr, ptr %27, align 8, !tbaa !11
  %29 = call noundef i32 @_ZNK3ozz9animation9Animation14num_soa_tracksEv(ptr noundef nonnull align 8 dereferenceable(304) %28)
  store i32 %29, ptr %6, align 4, !tbaa !22
  %30 = getelementptr inbounds nuw %"struct.ozz::animation::SamplingJob", ptr %7, i32 0, i32 2
  %31 = load ptr, ptr %30, align 8, !tbaa !19
  %32 = call noundef i32 @_ZNK3ozz9animation11SamplingJob7Context14max_soa_tracksEv(ptr noundef nonnull align 8 dereferenceable(192) %31)
  %33 = load i32, ptr %6, align 4, !tbaa !22
  %34 = icmp sge i32 %32, %33
  %35 = zext i1 %34 to i32
  %36 = load i8, ptr %4, align 1, !tbaa !9, !range !20, !noundef !21
  %37 = trunc i8 %36 to i1
  %38 = zext i1 %37 to i32
  %39 = and i32 %38, %35
  %40 = icmp ne i32 %39, 0
  %41 = zext i1 %40 to i8
  store i8 %41, ptr %4, align 1, !tbaa !9
  %42 = load i8, ptr %4, align 1, !tbaa !9, !range !20, !noundef !21
  %43 = trunc i8 %42 to i1
  store i1 %43, ptr %2, align 1
  store i32 1, ptr %5, align 4
  call void @llvm.lifetime.end.p0(i64 4, ptr %6) #15
  br label %44

44:                                               ; preds = %16, %15
  call void @llvm.lifetime.end.p0(i64 1, ptr %4) #15
  %45 = load i1, ptr %2, align 1
  ret i1 %45
}