; Function Attrs: mustprogress nofree norecurse nosync nounwind willreturn memory(read, inaccessiblemem: none) uwtable
define dso_local noundef zeroext i1 @_ZNK3ozz9animation11SamplingJob8ValidateEv(ptr noundef nonnull readonly align 8 captures(none) dereferenceable(40) %0) local_unnamed_addr #0 align 2 {
  %2 = getelementptr inbounds nuw i8, ptr %0, i64 8
  %3 = load ptr, ptr %2, align 8, !tbaa !4
  %.not = icmp eq ptr %3, null
  br i1 %.not, label %19, label %4

4:                                                ; preds = %1
  %5 = getelementptr inbounds nuw i8, ptr %0, i64 16
  %6 = load ptr, ptr %5, align 8, !tbaa !15
  %.not5 = icmp eq ptr %6, null
  br i1 %.not5, label %19, label %7

7:                                                ; preds = %4
  %8 = getelementptr inbounds nuw i8, ptr %0, i64 32
  %9 = load i64, ptr %8, align 8, !tbaa !16
  %10 = icmp ne i64 %9, 0
  %11 = getelementptr inbounds nuw i8, ptr %3, i64 4
  %12 = load i32, ptr %11, align 4, !tbaa !17
  %13 = add nsw i32 %12, 3
  %14 = sdiv i32 %13, 4
  %15 = getelementptr inbounds nuw i8, ptr %6, i64 12
  %16 = load i32, ptr %15, align 4, !tbaa !33
  %17 = icmp sge i32 %16, %14
  %18 = and i1 %10, %17
  br label %19

19:                                               ; preds = %1, %4, %7
  %.0 = phi i1 [ %18, %7 ], [ false, %4 ], [ false, %1 ]
  ret i1 %.0
}